target datalayout = "e-m:e-p270:32:32-p271:32:32-p272:64:64-i64:64-i128:128-f80:128-n8:16:32:64-S128"
target triple = "x86_64-unknown-linux-gnu"

%class.btConvex2dShape = type { %class.btConvexShape, ptr }
%class.btConvexShape = type { %class.btCollisionShape }
%class.btCollisionShape = type { ptr, i32, ptr, i32, i32 }

; Function Attrs: mustprogress uwtable
define dso_local void @_ZN15btConvex2dShapeC2EP13btConvexShape(ptr noundef nonnull align 8 dereferenceable(40) %this, ptr noundef %convexChildShape) unnamed_addr #2 align 2 {
entry:
  %this.addr = alloca ptr, align 8
  %convexChildShape.addr = alloca ptr, align 8
  store ptr %this, ptr %this.addr, align 8
  store ptr %convexChildShape, ptr %convexChildShape.addr, align 8
  %this1 = load ptr, ptr %this.addr, align 8
  call void @_ZN13btConvexShapeC2Ev(ptr noundef nonnull align 8 dereferenceable(32) %this1)
  store ptr getelementptr inbounds ({ [25 x ptr] }, ptr @_ZTV15btConvex2dShape, i32 0, i32 0, i32 2), ptr %this1, align 8
  %m_childConvexShape = getelementptr inbounds %class.btConvex2dShape, ptr %this1, i32 0, i32 1
  %0 = load ptr, ptr %convexChildShape.addr, align 8
  store ptr %0, ptr %m_childConvexShape, align 8
  %m_shapeType = getelementptr inbounds %class.btCollisionShape, ptr %this1, i32 0, i32 1
  store i32 18, ptr %m_shapeType, align 8
  ret void
}