; Function Attrs: mustprogress uwtable
define dso_local void @_ZN15btConvex2dShapeC2EP13btConvexShape(ptr noundef nonnull align 8 dereferenceable(40) %this, ptr noundef %convexChildShape) unnamed_addr #0 align 2 {
entry:
  tail call void @_ZN13btConvexShapeC2Ev(ptr noundef nonnull align 8 dereferenceable(32) %this)
  store ptr getelementptr inbounds ({ [25 x ptr] }, ptr @_ZTV15btConvex2dShape, i64 0, i32 0, i64 2), ptr %this, align 8
  %m_childConvexShape = getelementptr inbounds i8, ptr %this, i64 32
  store ptr %convexChildShape, ptr %m_childConvexShape, align 8
  %m_shapeType = getelementptr inbounds i8, ptr %this, i64 8
  store i32 18, ptr %m_shapeType, align 8
  ret void
}